target datalayout = "e-m:e-p270:32:32-p271:32:32-p272:64:64-i64:64-i128:128-f80:128-n8:16:32:64-S128"
target triple = "x86_64-pc-linux-gnu"

%struct.JNINativeInterface_ = type { ptr, ptr, ptr, ptr, ptr, ptr, ptr, ptr, ptr, ptr, ptr, ptr, ptr, ptr, ptr, ptr, ptr, ptr, ptr, ptr, ptr, ptr, ptr, ptr, ptr, ptr, ptr, ptr, ptr, ptr, ptr, ptr, ptr, ptr, ptr, ptr, ptr, ptr, ptr, ptr, ptr, ptr, ptr, ptr, ptr, ptr, ptr, ptr, ptr, ptr, ptr, ptr, ptr, ptr, ptr, ptr, ptr, ptr, ptr, ptr, ptr, ptr, ptr, ptr, ptr, ptr, ptr, ptr, ptr, ptr, ptr, ptr, ptr, ptr, ptr, ptr, ptr, ptr, ptr, ptr, ptr, ptr, ptr, ptr, ptr, ptr, ptr, ptr, ptr, ptr, ptr, ptr, ptr, ptr, ptr, ptr, ptr, ptr, ptr, ptr, ptr, ptr, ptr, ptr, ptr, ptr, ptr, ptr, ptr, ptr, ptr, ptr, ptr, ptr, ptr, ptr, ptr, ptr, ptr, ptr, ptr, ptr, ptr, ptr, ptr, ptr, ptr, ptr, ptr, ptr, ptr, ptr, ptr, ptr, ptr, ptr, ptr, ptr, ptr, ptr, ptr, ptr, ptr, ptr, ptr, ptr, ptr, ptr, ptr, ptr, ptr, ptr, ptr, ptr, ptr, ptr, ptr, ptr, ptr, ptr, ptr, ptr, ptr, ptr, ptr, ptr, ptr, ptr, ptr, ptr, ptr, ptr, ptr, ptr, ptr, ptr, ptr, ptr, ptr, ptr, ptr, ptr, ptr, ptr, ptr, ptr, ptr, ptr, ptr, ptr, ptr, ptr, ptr, ptr, ptr, ptr, ptr, ptr, ptr, ptr, ptr, ptr, ptr, ptr, ptr, ptr, ptr, ptr, ptr, ptr, ptr, ptr, ptr, ptr, ptr, ptr, ptr, ptr, ptr, ptr, ptr, ptr, ptr, ptr, ptr, ptr, ptr, ptr, ptr, ptr, ptr, ptr, ptr, ptr, ptr }

@IO_fd_fdID = external global ptr, align 8
@IO_append_fdID = external global ptr, align 8

; Function Attrs: nounwind uwtable
define hidden void @fileOpen(ptr noundef %0, ptr noundef %1, ptr noundef %2, ptr noundef %3, i32 noundef %4) #0 {
  %6 = alloca ptr, align 8
  %7 = alloca ptr, align 8
  %8 = alloca ptr, align 8
  %9 = alloca ptr, align 8
  %10 = alloca i32, align 4
  %11 = alloca ptr, align 8
  %12 = alloca ptr, align 8
  %13 = alloca i32, align 4
  %14 = alloca ptr, align 8
  %15 = alloca ptr, align 8
  %16 = alloca i8, align 1
  store ptr %0, ptr %6, align 8
  store ptr %1, ptr %7, align 8
  store ptr %2, ptr %8, align 8
  store ptr %3, ptr %9, align 8
  store i32 %4, ptr %10, align 4
  %17 = load ptr, ptr %8, align 8
  store ptr %17, ptr %12, align 8
  %18 = load ptr, ptr %12, align 8
  %19 = icmp eq ptr %18, null
  br i1 %19, label %20, label %22

20:                                               ; preds = %5
  %21 = load ptr, ptr %6, align 8
  call void @JNU_ThrowNullPointerException(ptr noundef %21, ptr noundef null)
  br label %96

22:                                               ; preds = %5
  %23 = load ptr, ptr %6, align 8
  %24 = load ptr, ptr %12, align 8
  %25 = call ptr @JNU_GetStringPlatformChars(ptr noundef %23, ptr noundef %24, ptr noundef null)
  store ptr %25, ptr %11, align 8
  %26 = load ptr, ptr %11, align 8
  %27 = icmp eq ptr %26, null
  br i1 %27, label %28, label %29

28:                                               ; preds = %22
  br label %96

29:                                               ; preds = %22
  %30 = load ptr, ptr %11, align 8
  %31 = load ptr, ptr %11, align 8
  %32 = call i64 @strlen(ptr noundef %31) #7
  %33 = getelementptr inbounds i8, ptr %30, i64 %32
  %34 = getelementptr inbounds i8, ptr %33, i64 -1
  store ptr %34, ptr %14, align 8
  br label %35

35:                                               ; preds = %46, %29
  %36 = load ptr, ptr %14, align 8
  %37 = load ptr, ptr %11, align 8
  %38 = icmp ugt ptr %36, %37
  br i1 %38, label %39, label %44

39:                                               ; preds = %35
  %40 = load ptr, ptr %14, align 8
  %41 = load i8, ptr %40, align 1
  %42 = sext i8 %41 to i32
  %43 = icmp eq i32 %42, 47
  br label %44

44:                                               ; preds = %39, %35
  %45 = phi i1 [ false, %35 ], [ %43, %39 ]
  br i1 %45, label %46, label %49

46:                                               ; preds = %44
  %47 = load ptr, ptr %14, align 8
  %48 = getelementptr inbounds i8, ptr %47, i32 -1
  store ptr %48, ptr %14, align 8
  store i8 0, ptr %47, align 1
  br label %35, !llvm.loop !9

49:                                               ; preds = %44
  %50 = load ptr, ptr %11, align 8
  %51 = load i32, ptr %10, align 4
  %52 = call i32 @handleOpen(ptr noundef %50, i32 noundef %51, i32 noundef 438)
  store i32 %52, ptr %13, align 4
  %53 = load i32, ptr %13, align 4
  %54 = icmp ne i32 %53, -1
  br i1 %54, label %55, label %89

55:                                               ; preds = %49
  %56 = load ptr, ptr %6, align 8
  %57 = load ptr, ptr %56, align 8
  %58 = getelementptr inbounds %struct.JNINativeInterface_, ptr %57, i32 0, i32 95
  %59 = load ptr, ptr %58, align 8
  %60 = load ptr, ptr %6, align 8
  %61 = load ptr, ptr %7, align 8
  %62 = load ptr, ptr %9, align 8
  %63 = call ptr %59(ptr noundef %60, ptr noundef %61, ptr noundef %62)
  store ptr %63, ptr %15, align 8
  %64 = load ptr, ptr %15, align 8
  %65 = icmp ne ptr %64, null
  br i1 %65, label %66, label %88

66:                                               ; preds = %55
  %67 = load ptr, ptr %6, align 8
  %68 = load ptr, ptr %67, align 8
  %69 = getelementptr inbounds %struct.JNINativeInterface_, ptr %68, i32 0, i32 109
  %70 = load ptr, ptr %69, align 8
  %71 = load ptr, ptr %6, align 8
  %72 = load ptr, ptr %15, align 8
  %73 = load ptr, ptr @IO_fd_fdID, align 8
  %74 = load i32, ptr %13, align 4
  call void %70(ptr noundef %71, ptr noundef %72, ptr noundef %73, i32 noundef %74)
  %75 = load i32, ptr %10, align 4
  %76 = and i32 %75, 1024
  %77 = icmp eq i32 %76, 0
  %78 = select i1 %77, i32 0, i32 1
  %79 = trunc i32 %78 to i8
  store i8 %79, ptr %16, align 1
  %80 = load ptr, ptr %6, align 8
  %81 = load ptr, ptr %80, align 8
  %82 = getelementptr inbounds %struct.JNINativeInterface_, ptr %81, i32 0, i32 105
  %83 = load ptr, ptr %82, align 8
  %84 = load ptr, ptr %6, align 8
  %85 = load ptr, ptr %15, align 8
  %86 = load ptr, ptr @IO_append_fdID, align 8
  %87 = load i8, ptr %16, align 1
  call void %83(ptr noundef %84, ptr noundef %85, ptr noundef %86, i8 noundef zeroext %87)
  br label %88

88:                                               ; preds = %66, %55
  br label %92

89:                                               ; preds = %49
  %90 = load ptr, ptr %6, align 8
  %91 = load ptr, ptr %8, align 8
  call void @throwFileNotFoundException(ptr noundef %90, ptr noundef %91)
  br label %92

92:                                               ; preds = %89, %88
  %93 = load ptr, ptr %6, align 8
  %94 = load ptr, ptr %12, align 8
  %95 = load ptr, ptr %11, align 8
  call void @JNU_ReleaseStringPlatformChars(ptr noundef %93, ptr noundef %94, ptr noundef %95)
  br label %96

96:                                               ; preds = %92, %28, %20
  ret void
}