; Function Attrs: nounwind uwtable
define hidden void @fileOpen(ptr noundef %0, ptr noundef %1, ptr noundef %2, ptr noundef %3, i32 noundef %4) local_unnamed_addr #0 {
  %6 = icmp eq ptr %2, null
  br i1 %6, label %7, label %8

7:                                                ; preds = %5
  tail call void @JNU_ThrowNullPointerException(ptr noundef %0, ptr noundef null) #8
  br label %39

8:                                                ; preds = %5
  %9 = tail call ptr @JNU_GetStringPlatformChars(ptr noundef %0, ptr noundef nonnull %2, ptr noundef null) #8
  %10 = icmp eq ptr %9, null
  br i1 %10, label %39, label %11

11:                                               ; preds = %8
  %12 = tail call i64 @strlen(ptr noundef nonnull dereferenceable(1) %9) #10
  %13 = getelementptr inbounds i8, ptr %9, i64 %12
  %.038 = getelementptr inbounds i8, ptr %13, i64 -1
  %14 = icmp ugt ptr %.038, %9
  br i1 %14, label %.lr.ph, label %.critedge

.lr.ph:                                           ; preds = %11, %17
  %.039 = phi ptr [ %.0, %17 ], [ %.038, %11 ]
  %15 = load i8, ptr %.039, align 1
  %16 = icmp eq i8 %15, 47
  br i1 %16, label %17, label %.critedge

17:                                               ; preds = %.lr.ph
  store i8 0, ptr %.039, align 1
  %.0 = getelementptr inbounds i8, ptr %.039, i64 -1
  %18 = icmp ugt ptr %.0, %9
  br i1 %18, label %.lr.ph, label %.critedge, !llvm.loop !9

.critedge:                                        ; preds = %.lr.ph, %17, %11
  %19 = tail call i32 @handleOpen(ptr noundef nonnull %9, i32 noundef %4, i32 noundef 438)
  %.not = icmp eq i32 %19, -1
  br i1 %.not, label %37, label %20

20:                                               ; preds = %.critedge
  %21 = load ptr, ptr %0, align 8
  %22 = getelementptr inbounds i8, ptr %21, i64 760
  %23 = load ptr, ptr %22, align 8
  %24 = tail call ptr %23(ptr noundef nonnull %0, ptr noundef %1, ptr noundef %3) #8
  %.not37 = icmp eq ptr %24, null
  br i1 %.not37, label %38, label %25

25:                                               ; preds = %20
  %26 = load ptr, ptr %0, align 8
  %27 = getelementptr inbounds i8, ptr %26, i64 872
  %28 = load ptr, ptr %27, align 8
  %29 = load ptr, ptr @IO_fd_fdID, align 8
  tail call void %28(ptr noundef nonnull %0, ptr noundef nonnull %24, ptr noundef %29, i32 noundef %19) #8
  %30 = lshr i32 %4, 10
  %31 = trunc i32 %30 to i8
  %32 = and i8 %31, 1
  %33 = load ptr, ptr %0, align 8
  %34 = getelementptr inbounds i8, ptr %33, i64 840
  %35 = load ptr, ptr %34, align 8
  %36 = load ptr, ptr @IO_append_fdID, align 8
  tail call void %35(ptr noundef nonnull %0, ptr noundef nonnull %24, ptr noundef %36, i8 noundef zeroext %32) #8
  br label %38

37:                                               ; preds = %.critedge
  tail call void @throwFileNotFoundException(ptr noundef %0, ptr noundef nonnull %2) #8
  br label %38

38:                                               ; preds = %20, %25, %37
  tail call void @JNU_ReleaseStringPlatformChars(ptr noundef %0, ptr noundef nonnull %2, ptr noundef nonnull %9) #8
  br label %39

39:                                               ; preds = %8, %38, %7
  ret void
}